; Function Attrs: mustprogress nofree norecurse nosync nounwind willreturn memory(none) uwtable
define noundef nonnull ptr @l_Lake_BuildType_toCtorIdx(i8 noundef zeroext %0) local_unnamed_addr #0 {
  switch i8 %0, label %4 [
    i8 0, label %5
    i8 1, label %2
    i8 2, label %3
  ]

2:                                                ; preds = %1
  br label %5

3:                                                ; preds = %1
  br label %5

4:                                                ; preds = %1
  br label %5

5:                                                ; preds = %1, %4, %3, %2
  %.0 = phi ptr [ inttoptr (i64 7 to ptr), %4 ], [ inttoptr (i64 5 to ptr), %3 ], [ inttoptr (i64 3 to ptr), %2 ], [ inttoptr (i64 1 to ptr), %1 ]
  ret ptr %.0
}